target datalayout = "e-m:e-p270:32:32-p271:32:32-p272:64:64-i64:64-i128:128-f80:128-n8:16:32:64-S128"
target triple = "x86_64-pc-linux-gnu"

%struct.pg_prng_state = type { i64, i64 }
%struct.instr_time = type { i64 }
%struct.timespec = type { i64, i64 }

@.str.34 = private unnamed_addr constant [5 x i8] c"time\00", align 1
@base_random_sequence = internal global %struct.pg_prng_state zeroinitializer, align 8
@random_seed = internal global i64 -1, align 8
@.str.131 = private unnamed_addr constant [5 x i8] c"rand\00", align 1
@.str.132 = private unnamed_addr constant [31 x i8] c"could not generate random seed\00", align 1
@.str.133 = private unnamed_addr constant [6 x i8] c"%lu%c\00", align 1
@.str.134 = private unnamed_addr constant [37 x i8] c"unrecognized random seed option \22%s\22\00", align 1
@.str.135 = private unnamed_addr constant [49 x i8] c"Expecting an unsigned integer, \22time\22 or \22rand\22.\00", align 1
@.str.136 = private unnamed_addr constant [28 x i8] c"setting random seed to %llu\00", align 1

; Function Attrs: inlinehint nounwind uwtable
define internal i64 @pg_clock_gettime_ns() #4 {
  %1 = alloca %struct.instr_time, align 8
  %2 = alloca %struct.timespec, align 8
  call void @llvm.lifetime.start.p0(i64 16, ptr %2) #14
  %3 = call i32 @clock_gettime(i32 noundef 1, ptr noundef %2) #14
  %4 = getelementptr inbounds nuw %struct.timespec, ptr %2, i32 0, i32 0
  %5 = load i64, ptr %4, align 8
  %6 = mul i64 %5, 1000000000
  %7 = getelementptr inbounds nuw %struct.timespec, ptr %2, i32 0, i32 1
  %8 = load i64, ptr %7, align 8
  %9 = add i64 %6, %8
  %10 = getelementptr inbounds nuw %struct.instr_time, ptr %1, i32 0, i32 0
  store i64 %9, ptr %10, align 8
  call void @llvm.lifetime.end.p0(i64 16, ptr %2) #14
  %11 = getelementptr inbounds nuw %struct.instr_time, ptr %1, i32 0, i32 0
  %12 = load i64, ptr %11, align 8
  ret i64 %12
}

; Function Attrs: inlinehint nounwind uwtable
define internal i64 @pg_time_now() #4 {
  %1 = alloca %struct.instr_time, align 8
  %2 = alloca %struct.instr_time, align 8
  call void @llvm.lifetime.start.p0(i64 8, ptr %1) #14
  call void @llvm.lifetime.start.p0(i64 8, ptr %2) #14
  %3 = call i64 @pg_clock_gettime_ns()
  %4 = getelementptr inbounds nuw %struct.instr_time, ptr %2, i32 0, i32 0
  store i64 %3, ptr %4, align 8
  call void @llvm.memcpy.p0.p0.i64(ptr align 8 %1, ptr align 8 %2, i64 8, i1 false)
  call void @llvm.lifetime.end.p0(i64 8, ptr %2) #14
  %5 = getelementptr inbounds nuw %struct.instr_time, ptr %1, i32 0, i32 0
  %6 = load i64, ptr %5, align 8
  %7 = sdiv i64 %6, 1000
  call void @llvm.lifetime.end.p0(i64 8, ptr %1) #14
  ret i64 %7
}

; Function Attrs: nounwind uwtable
define internal zeroext i1 @set_random_seed(ptr noundef %0) #0 {
  %2 = alloca i1, align 1
  %3 = alloca ptr, align 8
  %4 = alloca i64, align 8
  %5 = alloca i32, align 4
  %6 = alloca i64, align 8
  %7 = alloca i8, align 1
  store ptr %0, ptr %3, align 8
  call void @llvm.lifetime.start.p0(i64 8, ptr %4) #14
  %8 = load ptr, ptr %3, align 8
  %9 = icmp eq ptr %8, null
  br i1 %9, label %14, label %10

10:                                               ; preds = %1
  %11 = load ptr, ptr %3, align 8
  %12 = call i32 @strcmp(ptr noundef %11, ptr noundef @.str.34) #17
  %13 = icmp eq i32 %12, 0
  br i1 %13, label %14, label %16

14:                                               ; preds = %10, %1
  %15 = call i64 @pg_time_now()
  store i64 %15, ptr %4, align 8
  br label %36

16:                                               ; preds = %10
  %17 = load ptr, ptr %3, align 8
  %18 = call i32 @strcmp(ptr noundef %17, ptr noundef @.str.131) #17
  %19 = icmp eq i32 %18, 0
  br i1 %19, label %20, label %24

20:                                               ; preds = %16
  %21 = call zeroext i1 @pg_strong_random(ptr noundef %4, i64 noundef 8)
  br i1 %21, label %23, label %22

22:                                               ; preds = %20
  call void (i32, i32, ptr, ...) @pg_log_generic(i32 noundef 4, i32 noundef 0, ptr noundef @.str.132)
  store i1 false, ptr %2, align 1
  store i32 1, ptr %5, align 4
  br label %44

23:                                               ; preds = %20
  br label %35

24:                                               ; preds = %16
  call void @llvm.lifetime.start.p0(i64 8, ptr %6) #14
  call void @llvm.lifetime.start.p0(i64 1, ptr %7) #14
  %25 = load ptr, ptr %3, align 8
  %26 = call i32 (ptr, ptr, ...) @__isoc99_sscanf(ptr noundef %25, ptr noundef @.str.133, ptr noundef %6, ptr noundef %7) #14
  %27 = icmp ne i32 %26, 1
  br i1 %27, label %28, label %30

28:                                               ; preds = %24
  %29 = load ptr, ptr %3, align 8
  call void (i32, i32, ptr, ...) @pg_log_generic(i32 noundef 4, i32 noundef 0, ptr noundef @.str.134, ptr noundef %29)
  call void (i32, i32, ptr, ...) @pg_log_generic(i32 noundef 4, i32 noundef 1, ptr noundef @.str.135)
  store i1 false, ptr %2, align 1
  store i32 1, ptr %5, align 4
  br label %32

30:                                               ; preds = %24
  %31 = load i64, ptr %6, align 8
  store i64 %31, ptr %4, align 8
  store i32 0, ptr %5, align 4
  br label %32

32:                                               ; preds = %30, %28
  call void @llvm.lifetime.end.p0(i64 1, ptr %7) #14
  call void @llvm.lifetime.end.p0(i64 8, ptr %6) #14
  %33 = load i32, ptr %5, align 4
  switch i32 %33, label %44 [
    i32 0, label %34
  ]

34:                                               ; preds = %32
  br label %35

35:                                               ; preds = %34, %23
  br label %36

36:                                               ; preds = %35, %14
  %37 = load ptr, ptr %3, align 8
  %38 = icmp ne ptr %37, null
  br i1 %38, label %39, label %41

39:                                               ; preds = %36
  %40 = load i64, ptr %4, align 8
  call void (i32, i32, ptr, ...) @pg_log_generic(i32 noundef 2, i32 noundef 0, ptr noundef @.str.136, i64 noundef %40)
  br label %41

41:                                               ; preds = %39, %36
  %42 = load i64, ptr %4, align 8
  store i64 %42, ptr @random_seed, align 8
  %43 = load i64, ptr %4, align 8
  call void @pg_prng_seed(ptr noundef @base_random_sequence, i64 noundef %43)
  store i1 true, ptr %2, align 1
  store i32 1, ptr %5, align 4
  br label %44

44:                                               ; preds = %41, %32, %22
  call void @llvm.lifetime.end.p0(i64 8, ptr %4) #14
  %45 = load i1, ptr %2, align 1
  ret i1 %45
}