; Function Attrs: nounwind uwtable
define internal fastcc noundef zeroext i1 @set_random_seed(ptr noundef %0) unnamed_addr #0 {
  %2 = alloca %struct.timespec, align 8
  %3 = alloca i64, align 8
  %4 = alloca i64, align 8
  %5 = alloca i8, align 1
  call void @llvm.lifetime.start.p0(i64 8, ptr nonnull %3) #25
  %6 = icmp eq ptr %0, null
  br i1 %6, label %.critedge, label %7

7:                                                ; preds = %1
  %8 = tail call i32 @strcmp(ptr noundef nonnull dereferenceable(1) %0, ptr noundef nonnull dereferenceable(5) @.str.34) #27
  %9 = icmp eq i32 %8, 0
  br i1 %9, label %20, label %10

10:                                               ; preds = %7
  %11 = tail call i32 @strcmp(ptr noundef nonnull dereferenceable(1) %0, ptr noundef nonnull dereferenceable(5) @.str.131) #27
  %12 = icmp eq i32 %11, 0
  br i1 %12, label %13, label %16

13:                                               ; preds = %10
  %14 = call zeroext i1 @pg_strong_random(ptr noundef nonnull %3, i64 noundef 8) #25
  br i1 %14, label %..thread10_crit_edge, label %15

..thread10_crit_edge:                             ; preds = %13
  %.pre = load i64, ptr %3, align 8
  br label %.thread10

15:                                               ; preds = %13
  call void (i32, i32, ptr, ...) @pg_log_generic(i32 noundef 4, i32 noundef 0, ptr noundef nonnull @.str.132) #25
  br label %38

16:                                               ; preds = %10
  call void @llvm.lifetime.start.p0(i64 8, ptr nonnull %4) #25
  call void @llvm.lifetime.start.p0(i64 1, ptr nonnull %5) #25
  %17 = call i32 (ptr, ptr, ...) @__isoc99_sscanf(ptr noundef nonnull %0, ptr noundef nonnull @.str.133, ptr noundef nonnull %4, ptr noundef nonnull %5) #25
  %.not = icmp eq i32 %17, 1
  br i1 %.not, label %.thread, label %19

.thread:                                          ; preds = %16
  %18 = load i64, ptr %4, align 8
  store i64 %18, ptr %3, align 8
  call void @llvm.lifetime.end.p0(i64 1, ptr nonnull %5) #25
  call void @llvm.lifetime.end.p0(i64 8, ptr nonnull %4) #25
  br label %.thread10

19:                                               ; preds = %16
  call void (i32, i32, ptr, ...) @pg_log_generic(i32 noundef 4, i32 noundef 0, ptr noundef nonnull @.str.134, ptr noundef nonnull %0) #25
  call void (i32, i32, ptr, ...) @pg_log_generic(i32 noundef 4, i32 noundef 1, ptr noundef nonnull @.str.135) #25
  call void @llvm.lifetime.end.p0(i64 1, ptr nonnull %5) #25
  call void @llvm.lifetime.end.p0(i64 8, ptr nonnull %4) #25
  br label %38

20:                                               ; preds = %7
  call void @llvm.lifetime.start.p0(i64 16, ptr nonnull %2) #25
  %21 = call i32 @clock_gettime(i32 noundef 1, ptr noundef nonnull %2) #25
  %22 = load i64, ptr %2, align 8
  %23 = mul i64 %22, 1000000000
  %24 = getelementptr inbounds nuw i8, ptr %2, i64 8
  %25 = load i64, ptr %24, align 8
  %26 = add i64 %23, %25
  call void @llvm.lifetime.end.p0(i64 16, ptr nonnull %2) #25
  %27 = sdiv i64 %26, 1000
  store i64 %27, ptr %3, align 8
  br label %.thread10

.thread10:                                        ; preds = %..thread10_crit_edge, %20, %.thread
  %28 = phi i64 [ %.pre, %..thread10_crit_edge ], [ %27, %20 ], [ %18, %.thread ]
  call void (i32, i32, ptr, ...) @pg_log_generic(i32 noundef 2, i32 noundef 0, ptr noundef nonnull @.str.136, i64 noundef %28) #25
  %.pre11 = load i64, ptr %3, align 8
  br label %36

.critedge:                                        ; preds = %1
  call void @llvm.lifetime.start.p0(i64 16, ptr nonnull %2) #25
  %29 = call i32 @clock_gettime(i32 noundef 1, ptr noundef nonnull %2) #25
  %30 = load i64, ptr %2, align 8
  %31 = mul i64 %30, 1000000000
  %32 = getelementptr inbounds nuw i8, ptr %2, i64 8
  %33 = load i64, ptr %32, align 8
  %34 = add i64 %31, %33
  call void @llvm.lifetime.end.p0(i64 16, ptr nonnull %2) #25
  %35 = sdiv i64 %34, 1000
  store i64 %35, ptr %3, align 8
  br label %36

36:                                               ; preds = %.critedge, %.thread10
  %37 = phi i64 [ %35, %.critedge ], [ %.pre11, %.thread10 ]
  store i64 %37, ptr @random_seed, align 8
  call void @pg_prng_seed(ptr noundef nonnull @base_random_sequence, i64 noundef %37) #25
  br label %38

38:                                               ; preds = %19, %36, %15
  %.07 = phi i1 [ true, %36 ], [ false, %15 ], [ false, %19 ]
  call void @llvm.lifetime.end.p0(i64 8, ptr nonnull %3) #25
  ret i1 %.07
}